; Function Attrs: nounwind uwtable
define dso_local ptr @bufferevent_openssl_get_ssl(ptr noundef %0) local_unnamed_addr #0 {
  %2 = tail call ptr @bufferevent_ssl_upcast(ptr noundef %0) #5
  %.not = icmp eq ptr %2, null
  br i1 %.not, label %6, label %3

3:                                                ; preds = %1
  %4 = getelementptr inbounds nuw i8, ptr %2, i64 528
  %5 = load ptr, ptr %4, align 8
  br label %6

6:                                                ; preds = %1, %3
  %.0 = phi ptr [ %5, %3 ], [ null, %1 ]
  ret ptr %.0
}